; Function Attrs: mustprogress nofree norecurse nosync nounwind willreturn memory(argmem: readwrite) uwtable
define dso_local void @_ZN4llvm11MCSymbolELF9setMemtagEb(ptr nocapture noundef nonnull align 8 dereferenceable(40) %0, i1 noundef zeroext %1) local_unnamed_addr #0 align 2 {
  %3 = getelementptr inbounds nuw i8, ptr %0, i64 8
  %4 = load i64, ptr %3, align 8
  %5 = and i64 %4, -35184372088833
  %masksel = select i1 %1, i64 35184372088832, i64 0
  %storemerge = or disjoint i64 %5, %masksel
  store i64 %storemerge, ptr %3, align 8
  ret void
}